; ModuleID = '17/65.c'
source_filename = "17/65.c"
target datalayout = "e-m:e-p270:32:32-p271:32:32-p272:64:64-i64:64-f80:128-n8:16:32:64-S128"
target triple = "x86_64-pc-linux-gnu"

@.str = private unnamed_addr constant [3 x i8] c"%s\00", align 1
@.str.1 = private unnamed_addr constant [4 x i8] c"%s\0A\00", align 1
@.str.2 = private unnamed_addr constant [2 x i8] c"$\00", align 1
@.str.3 = private unnamed_addr constant [2 x i8] c"?\00", align 1
@.str.4 = private unnamed_addr constant [2 x i8] c" \00", align 1
@.str.5 = private unnamed_addr constant [2 x i8] c"\0A\00", align 1

; Function Attrs: noinline nounwind uwtable
define dso_local i32 @main() #0 {
  %1 = alloca i32, align 4
  %2 = alloca [100 x i8], align 16
  %3 = alloca [100 x i8], align 16
  store i32 0, i32* %1, align 4
  %4 = bitcast [100 x i8]* %2 to i8*
  call void @llvm.memset.p0i8.i64(i8* align 16 %4, i8 0, i64 100, i1 false)
  br label %5

5:                                                ; preds = %9, %0
  %6 = getelementptr inbounds [100 x i8], [100 x i8]* %2, i64 0, i64 0
  %7 = call i32 (i8*, ...) @__isoc99_scanf(i8* getelementptr inbounds ([3 x i8], [3 x i8]* @.str, i64 0, i64 0), i8* %6)
  %8 = icmp eq i32 %7, 1
  br i1 %8, label %9, label %16

9:                                                ; preds = %5
  %10 = bitcast [100 x i8]* %3 to i8*
  call void @llvm.memset.p0i8.i64(i8* align 16 %10, i8 0, i64 100, i1 false)
  %11 = getelementptr inbounds [100 x i8], [100 x i8]* %2, i64 0, i64 0
  %12 = getelementptr inbounds [100 x i8], [100 x i8]* %3, i64 0, i64 0
  %13 = getelementptr inbounds [100 x i8], [100 x i8]* %2, i64 0, i64 0
  %14 = call i64 @strlen(i8* %13) #5
  %15 = trunc i64 %14 to i32
  call void @match(i8* %11, i8* %12, i32 %15)
  br label %5

16:                                               ; preds = %5
  ret i32 0
}

; Function Attrs: argmemonly nounwind willreturn
declare void @llvm.memset.p0i8.i64(i8* nocapture writeonly, i8, i64, i1 immarg) #1

declare dso_local i32 @__isoc99_scanf(i8*, ...) #2

; Function Attrs: noinline nounwind uwtable
define dso_local void @match(i8* %0, i8* %1, i32 %2) #0 {
  %4 = alloca i8*, align 8
  %5 = alloca i8*, align 8
  %6 = alloca i32, align 4
  %7 = alloca i32, align 4
  %8 = alloca i32, align 4
  %9 = alloca i32, align 4
  %10 = alloca i32, align 4
  %11 = alloca i32, align 4
  %12 = alloca [100 x i8], align 16
  %13 = alloca [100 x i8], align 16
  store i8* %0, i8** %4, align 8
  store i8* %1, i8** %5, align 8
  store i32 %2, i32* %6, align 4
  %14 = bitcast [100 x i8]* %12 to i8*
  call void @llvm.memset.p0i8.i64(i8* align 16 %14, i8 0, i64 100, i1 false)
  %15 = bitcast [100 x i8]* %13 to i8*
  call void @llvm.memset.p0i8.i64(i8* align 16 %15, i8 0, i64 100, i1 false)
  %16 = getelementptr inbounds [100 x i8], [100 x i8]* %13, i64 0, i64 0
  %17 = load i8*, i8** %5, align 8
  %18 = call i8* @strcpy(i8* %16, i8* %17) #6
  %19 = getelementptr inbounds [100 x i8], [100 x i8]* %12, i64 0, i64 0
  %20 = load i8*, i8** %4, align 8
  %21 = call i8* @strcpy(i8* %19, i8* %20) #6
  store i32 0, i32* %7, align 4
  br label %22

22:                                               ; preds = %54, %3
  %23 = load i32, i32* %7, align 4
  %24 = load i32, i32* %6, align 4
  %25 = icmp slt i32 %23, %24
  br i1 %25, label %26, label %57

26:                                               ; preds = %22
  %27 = getelementptr inbounds [100 x i8], [100 x i8]* %12, i64 0, i64 0
  %28 = load i32, i32* %7, align 4
  %29 = sext i32 %28 to i64
  %30 = getelementptr inbounds i8, i8* %27, i64 %29
  %31 = load i8, i8* %30, align 1
  %32 = sext i8 %31 to i32
  %33 = icmp eq i32 %32, 40
  br i1 %33, label %34, label %39

34:                                               ; preds = %26
  %35 = getelementptr inbounds [100 x i8], [100 x i8]* %13, i64 0, i64 0
  %36 = load i32, i32* %7, align 4
  %37 = sext i32 %36 to i64
  %38 = getelementptr inbounds i8, i8* %35, i64 %37
  store i8 -1, i8* %38, align 1
  br label %53

39:                                               ; preds = %26
  %40 = getelementptr inbounds [100 x i8], [100 x i8]* %12, i64 0, i64 0
  %41 = load i32, i32* %7, align 4
  %42 = sext i32 %41 to i64
  %43 = getelementptr inbounds i8, i8* %40, i64 %42
  %44 = load i8, i8* %43, align 1
  %45 = sext i8 %44 to i32
  %46 = icmp eq i32 %45, 41
  br i1 %46, label %47, label %52

47:                                               ; preds = %39
  %48 = getelementptr inbounds [100 x i8], [100 x i8]* %13, i64 0, i64 0
  %49 = load i32, i32* %7, align 4
  %50 = sext i32 %49 to i64
  %51 = getelementptr inbounds i8, i8* %48, i64 %50
  store i8 1, i8* %51, align 1
  br label %52

52:                                               ; preds = %47, %39
  br label %53

53:                                               ; preds = %52, %34
  br label %54

54:                                               ; preds = %53
  %55 = load i32, i32* %7, align 4
  %56 = add nsw i32 %55, 1
  store i32 %56, i32* %7, align 4
  br label %22

57:                                               ; preds = %22
  br label %58

58:                                               ; preds = %105, %57
  store i32 0, i32* %8, align 4
  store i32 0, i32* %9, align 4
  store i32 0, i32* %10, align 4
  store i32 0, i32* %11, align 4
  store i32 0, i32* %7, align 4
  br label %59

59:                                               ; preds = %95, %58
  %60 = load i32, i32* %7, align 4
  %61 = load i32, i32* %6, align 4
  %62 = icmp slt i32 %60, %61
  br i1 %62, label %63, label %98

63:                                               ; preds = %59
  %64 = getelementptr inbounds [100 x i8], [100 x i8]* %13, i64 0, i64 0
  %65 = load i32, i32* %7, align 4
  %66 = sext i32 %65 to i64
  %67 = getelementptr inbounds i8, i8* %64, i64 %66
  %68 = load i8, i8* %67, align 1
  %69 = sext i8 %68 to i32
  %70 = icmp eq i32 %69, 1
  br i1 %70, label %71, label %83

71:                                               ; preds = %63
  %72 = load i32, i32* %8, align 4
  %73 = icmp eq i32 %72, 1
  br i1 %73, label %74, label %83

74:                                               ; preds = %71
  %75 = getelementptr inbounds [100 x i8], [100 x i8]* %13, i64 0, i64 0
  %76 = load i32, i32* %7, align 4
  %77 = sext i32 %76 to i64
  %78 = getelementptr inbounds i8, i8* %75, i64 %77
  store i8 0, i8* %78, align 1
  %79 = getelementptr inbounds [100 x i8], [100 x i8]* %13, i64 0, i64 0
  %80 = load i32, i32* %9, align 4
  %81 = sext i32 %80 to i64
  %82 = getelementptr inbounds i8, i8* %79, i64 %81
  store i8 0, i8* %82, align 1
  store i32 0, i32* %8, align 4
  store i32 1, i32* %10, align 4
  br label %94

83:                                               ; preds = %71, %63
  %84 = getelementptr inbounds [100 x i8], [100 x i8]* %13, i64 0, i64 0
  %85 = load i32, i32* %7, align 4
  %86 = sext i32 %85 to i64
  %87 = getelementptr inbounds i8, i8* %84, i64 %86
  %88 = load i8, i8* %87, align 1
  %89 = sext i8 %88 to i32
  %90 = icmp eq i32 %89, -1
  br i1 %90, label %91, label %93

91:                                               ; preds = %83
  store i32 1, i32* %8, align 4
  %92 = load i32, i32* %7, align 4
  store i32 %92, i32* %9, align 4
  store i32 1, i32* %11, align 4
  br label %93

93:                                               ; preds = %91, %83
  br label %94

94:                                               ; preds = %93, %74
  br label %95

95:                                               ; preds = %94
  %96 = load i32, i32* %7, align 4
  %97 = add nsw i32 %96, 1
  store i32 %97, i32* %7, align 4
  br label %59

98:                                               ; preds = %59
  br label %99

99:                                               ; preds = %98
  %100 = load i32, i32* %10, align 4
  %101 = icmp ne i32 %100, 0
  br i1 %101, label %102, label %105

102:                                              ; preds = %99
  %103 = load i32, i32* %11, align 4
  %104 = icmp ne i32 %103, 0
  br label %105

105:                                              ; preds = %102, %99
  %106 = phi i1 [ false, %99 ], [ %104, %102 ]
  br i1 %106, label %58, label %107

107:                                              ; preds = %105
  %108 = load i8*, i8** %4, align 8
  %109 = call i32 (i8*, ...) @printf(i8* getelementptr inbounds ([4 x i8], [4 x i8]* @.str.1, i64 0, i64 0), i8* %108)
  store i32 0, i32* %7, align 4
  br label %110

110:                                              ; preds = %138, %107
  %111 = load i32, i32* %7, align 4
  %112 = load i32, i32* %6, align 4
  %113 = icmp slt i32 %111, %112
  br i1 %113, label %114, label %141

114:                                              ; preds = %110
  %115 = getelementptr inbounds [100 x i8], [100 x i8]* %13, i64 0, i64 0
  %116 = load i32, i32* %7, align 4
  %117 = sext i32 %116 to i64
  %118 = getelementptr inbounds i8, i8* %115, i64 %117
  %119 = load i8, i8* %118, align 1
  %120 = sext i8 %119 to i32
  %121 = icmp eq i32 %120, -1
  br i1 %121, label %122, label %124

122:                                              ; preds = %114
  %123 = call i32 (i8*, ...) @printf(i8* getelementptr inbounds ([2 x i8], [2 x i8]* @.str.2, i64 0, i64 0))
  br label %137

124:                                              ; preds = %114
  %125 = getelementptr inbounds [100 x i8], [100 x i8]* %13, i64 0, i64 0
  %126 = load i32, i32* %7, align 4
  %127 = sext i32 %126 to i64
  %128 = getelementptr inbounds i8, i8* %125, i64 %127
  %129 = load i8, i8* %128, align 1
  %130 = sext i8 %129 to i32
  %131 = icmp eq i32 %130, 1
  br i1 %131, label %132, label %134

132:                                              ; preds = %124
  %133 = call i32 (i8*, ...) @printf(i8* getelementptr inbounds ([2 x i8], [2 x i8]* @.str.3, i64 0, i64 0))
  br label %136

134:                                              ; preds = %124
  %135 = call i32 (i8*, ...) @printf(i8* getelementptr inbounds ([2 x i8], [2 x i8]* @.str.4, i64 0, i64 0))
  br label %136

136:                                              ; preds = %134, %132
  br label %137

137:                                              ; preds = %136, %122
  br label %138

138:                                              ; preds = %137
  %139 = load i32, i32* %7, align 4
  %140 = add nsw i32 %139, 1
  store i32 %140, i32* %7, align 4
  br label %110

141:                                              ; preds = %110
  %142 = call i32 (i8*, ...) @printf(i8* getelementptr inbounds ([2 x i8], [2 x i8]* @.str.5, i64 0, i64 0))
  ret void
}

; Function Attrs: nounwind readonly
declare dso_local i64 @strlen(i8*) #3

; Function Attrs: nounwind
declare dso_local i8* @strcpy(i8*, i8*) #4

declare dso_local i32 @printf(i8*, ...) #2


!llvm.module.flags = !{!0}
!llvm.ident = !{!1}

!0 = !{i32 1, !"wchar_size", i32 4}
!1 = !{!"clang version 10.0.0-4ubuntu1 "}
